target datalayout = "e-m:e-p270:32:32-p271:32:32-p272:64:64-i64:64-i128:128-f80:128-n8:16:32:64-S128"
target triple = "x86_64-pc-linux-gnu"

%"class.duckdb_apache::thrift::TBase" = type { ptr }
%"class.duckdb::vector" = type { %"class.std::vector" }
%"class.std::vector" = type { %"struct.std::_Vector_base" }
%"struct.std::_Vector_base" = type { %"struct.std::_Vector_base<long, std::allocator<long>>::_Vector_impl" }
%"struct.std::_Vector_base<long, std::allocator<long>>::_Vector_impl" = type { %"struct.std::_Vector_base<long, std::allocator<long>>::_Vector_impl_data" }
%"struct.std::_Vector_base<long, std::allocator<long>>::_Vector_impl_data" = type { ptr, ptr, ptr }
%"class.duckdb::vector.12" = type { %"class.std::vector.13" }
%"class.std::vector.13" = type { %"struct.std::_Vector_base.14" }
%"struct.std::_Vector_base.14" = type { %"struct.std::_Vector_base<std::__cxx11::basic_string<char>, std::allocator<std::__cxx11::basic_string<char>>>::_Vector_impl" }
%"struct.std::_Vector_base<std::__cxx11::basic_string<char>, std::allocator<std::__cxx11::basic_string<char>>>::_Vector_impl" = type { %"struct.std::_Vector_base<std::__cxx11::basic_string<char>, std::allocator<std::__cxx11::basic_string<char>>>::_Vector_impl_data" }
%"struct.std::_Vector_base<std::__cxx11::basic_string<char>, std::allocator<std::__cxx11::basic_string<char>>>::_Vector_impl_data" = type { ptr, ptr, ptr }
%"class.duckdb_parquet::ColumnIndex" = type <{ %"class.duckdb_apache::thrift::TBase", %"class.duckdb::vector.55", %"class.duckdb::vector.12", %"class.duckdb::vector.12", i32, [4 x i8], %"class.duckdb::vector", %"class.duckdb::vector", %"class.duckdb::vector", %"struct.duckdb_parquet::_ColumnIndex__isset", [7 x i8] }>
%"class.duckdb::vector.55" = type { %"class.std::vector.56" }
%"class.std::vector.56" = type { %"struct.std::_Bvector_base" }
%"struct.std::_Bvector_base" = type { %"struct.std::_Bvector_base<std::allocator<bool>>::_Bvector_impl" }
%"struct.std::_Bvector_base<std::allocator<bool>>::_Bvector_impl" = type { %"struct.std::_Bvector_base<std::allocator<bool>>::_Bvector_impl_data" }
%"struct.std::_Bvector_base<std::allocator<bool>>::_Bvector_impl_data" = type { %"struct.std::_Bit_iterator", %"struct.std::_Bit_iterator", ptr }
%"struct.std::_Bit_iterator" = type { %"struct.std::_Bit_iterator_base.base", [4 x i8] }
%"struct.std::_Bit_iterator_base.base" = type <{ ptr, i32 }>
%"struct.duckdb_parquet::_ColumnIndex__isset" = type { i8 }
%"struct.std::_Bit_iterator_base" = type <{ ptr, i32, [4 x i8] }>

; Function Attrs: mustprogress nounwind uwtable
define linkonce_odr void @_ZNSt18_Bit_iterator_baseC2EPmj(ptr noundef nonnull align 8 dereferenceable(12) %0, ptr noundef %1, i32 noundef %2) unnamed_addr #1 comdat align 2 {
  %4 = alloca ptr, align 8
  %5 = alloca ptr, align 8
  %6 = alloca i32, align 4
  store ptr %0, ptr %4, align 8, !tbaa !591
  store ptr %1, ptr %5, align 8, !tbaa !95
  store i32 %2, ptr %6, align 4, !tbaa !8
  %7 = load ptr, ptr %4, align 8
  %8 = getelementptr inbounds nuw %"struct.std::_Bit_iterator_base", ptr %7, i32 0, i32 0
  %9 = load ptr, ptr %5, align 8, !tbaa !95
  store ptr %9, ptr %8, align 8, !tbaa !590
  %10 = getelementptr inbounds nuw %"struct.std::_Bit_iterator_base", ptr %7, i32 0, i32 1
  %11 = load i32, ptr %6, align 4, !tbaa !8
  store i32 %11, ptr %10, align 8, !tbaa !593
  ret void
}

; Function Attrs: mustprogress nounwind uwtable
define linkonce_odr void @_ZNSt15__new_allocatorIlEC2Ev(ptr noundef nonnull align 1 dereferenceable(1) %0) unnamed_addr #1 comdat align 2 {
  %2 = alloca ptr, align 8
  store ptr %0, ptr %2, align 8, !tbaa !718
  ret void
}

; Function Attrs: mustprogress nounwind uwtable
define linkonce_odr void @_ZNSt15__new_allocatorINSt7__cxx1112basic_stringIcSt11char_traitsIcESaIcEEEEC2Ev(ptr noundef nonnull align 1 dereferenceable(1) %0) unnamed_addr #1 comdat align 2 {
  %2 = alloca ptr, align 8
  store ptr %0, ptr %2, align 8, !tbaa !762
  ret void
}

; Function Attrs: mustprogress uwtable
define linkonce_odr void @_ZNSt13_Bit_iteratorC2Ev(ptr noundef nonnull align 8 dereferenceable(12) %0) unnamed_addr #2 comdat align 2 {
  %2 = alloca ptr, align 8
  store ptr %0, ptr %2, align 8, !tbaa !892
  %3 = load ptr, ptr %2, align 8
  call void @_ZNSt18_Bit_iterator_baseC2EPmj(ptr noundef nonnull align 8 dereferenceable(12) %3, ptr noundef null, i32 noundef 0)
  ret void
}

; Function Attrs: mustprogress nounwind uwtable
define linkonce_odr void @_ZNSt15__new_allocatorImEC2Ev(ptr noundef nonnull align 1 dereferenceable(1) %0) unnamed_addr #1 comdat align 2 {
  %2 = alloca ptr, align 8
  store ptr %0, ptr %2, align 8, !tbaa !884
  ret void
}

; Function Attrs: mustprogress nounwind uwtable
define linkonce_odr void @_ZNSt12_Vector_baseIlSaIlEE17_Vector_impl_dataC2Ev(ptr noundef nonnull align 8 dereferenceable(24) %0) unnamed_addr #1 comdat align 2 {
  %2 = alloca ptr, align 8
  store ptr %0, ptr %2, align 8, !tbaa !1054
  %3 = load ptr, ptr %2, align 8
  %4 = getelementptr inbounds nuw %"struct.std::_Vector_base<long, std::allocator<long>>::_Vector_impl_data", ptr %3, i32 0, i32 0
  store ptr null, ptr %4, align 8, !tbaa !98
  %5 = getelementptr inbounds nuw %"struct.std::_Vector_base<long, std::allocator<long>>::_Vector_impl_data", ptr %3, i32 0, i32 1
  store ptr null, ptr %5, align 8, !tbaa !106
  %6 = getelementptr inbounds nuw %"struct.std::_Vector_base<long, std::allocator<long>>::_Vector_impl_data", ptr %3, i32 0, i32 2
  store ptr null, ptr %6, align 8, !tbaa !717
  ret void
}

; Function Attrs: mustprogress nounwind uwtable
define linkonce_odr void @_ZNSaIlEC2Ev(ptr noundef nonnull align 1 dereferenceable(1) %0) unnamed_addr #1 comdat align 2 {
  %2 = alloca ptr, align 8
  store ptr %0, ptr %2, align 8, !tbaa !713
  %3 = load ptr, ptr %2, align 8
  call void @_ZNSt15__new_allocatorIlEC2Ev(ptr noundef nonnull align 1 dereferenceable(1) %3) #3
  ret void
}

; Function Attrs: mustprogress nounwind uwtable
define linkonce_odr void @_ZNSt12_Vector_baseINSt7__cxx1112basic_stringIcSt11char_traitsIcESaIcEEESaIS5_EE17_Vector_impl_dataC2Ev(ptr noundef nonnull align 8 dereferenceable(24) %0) unnamed_addr #1 comdat align 2 {
  %2 = alloca ptr, align 8
  store ptr %0, ptr %2, align 8, !tbaa !1105
  %3 = load ptr, ptr %2, align 8
  %4 = getelementptr inbounds nuw %"struct.std::_Vector_base<std::__cxx11::basic_string<char>, std::allocator<std::__cxx11::basic_string<char>>>::_Vector_impl_data", ptr %3, i32 0, i32 0
  store ptr null, ptr %4, align 8, !tbaa !403
  %5 = getelementptr inbounds nuw %"struct.std::_Vector_base<std::__cxx11::basic_string<char>, std::allocator<std::__cxx11::basic_string<char>>>::_Vector_impl_data", ptr %3, i32 0, i32 1
  store ptr null, ptr %5, align 8, !tbaa !423
  %6 = getelementptr inbounds nuw %"struct.std::_Vector_base<std::__cxx11::basic_string<char>, std::allocator<std::__cxx11::basic_string<char>>>::_Vector_impl_data", ptr %3, i32 0, i32 2
  store ptr null, ptr %6, align 8, !tbaa !760
  ret void
}

; Function Attrs: mustprogress nounwind uwtable
define linkonce_odr void @_ZNSaINSt7__cxx1112basic_stringIcSt11char_traitsIcESaIcEEEEC2Ev(ptr noundef nonnull align 1 dereferenceable(1) %0) unnamed_addr #1 comdat align 2 {
  %2 = alloca ptr, align 8
  store ptr %0, ptr %2, align 8, !tbaa !756
  %3 = load ptr, ptr %2, align 8
  call void @_ZNSt15__new_allocatorINSt7__cxx1112basic_stringIcSt11char_traitsIcESaIcEEEEC2Ev(ptr noundef nonnull align 1 dereferenceable(1) %3) #3
  ret void
}

; Function Attrs: mustprogress nounwind uwtable
define linkonce_odr void @_ZNSt13_Bvector_baseISaIbEE18_Bvector_impl_dataC2Ev(ptr noundef nonnull align 8 dereferenceable(40) %0) unnamed_addr #1 comdat align 2 personality ptr @__gxx_personality_v0 {
  %2 = alloca ptr, align 8
  store ptr %0, ptr %2, align 8, !tbaa !890
  %3 = load ptr, ptr %2, align 8
  %4 = getelementptr inbounds nuw %"struct.std::_Bvector_base<std::allocator<bool>>::_Bvector_impl_data", ptr %3, i32 0, i32 0
  invoke void @_ZNSt13_Bit_iteratorC2Ev(ptr noundef nonnull align 8 dereferenceable(12) %4)
          to label %5 unwind label %9

5:                                                ; preds = %1
  %6 = getelementptr inbounds nuw %"struct.std::_Bvector_base<std::allocator<bool>>::_Bvector_impl_data", ptr %3, i32 0, i32 1
  invoke void @_ZNSt13_Bit_iteratorC2Ev(ptr noundef nonnull align 8 dereferenceable(12) %6)
          to label %7 unwind label %9

7:                                                ; preds = %5
  %8 = getelementptr inbounds nuw %"struct.std::_Bvector_base<std::allocator<bool>>::_Bvector_impl_data", ptr %3, i32 0, i32 2
  store ptr null, ptr %8, align 8, !tbaa !883
  ret void

9:                                                ; preds = %5, %1
  %10 = landingpad { ptr, i32 }
          catch ptr null
  %11 = extractvalue { ptr, i32 } %10, 0
  call void @__clang_call_terminate(ptr %11) #21
  unreachable
}

; Function Attrs: mustprogress nounwind uwtable
define linkonce_odr void @_ZNSaImEC2Ev(ptr noundef nonnull align 1 dereferenceable(1) %0) unnamed_addr #1 comdat align 2 {
  %2 = alloca ptr, align 8
  store ptr %0, ptr %2, align 8, !tbaa !888
  %3 = load ptr, ptr %2, align 8
  call void @_ZNSt15__new_allocatorImEC2Ev(ptr noundef nonnull align 1 dereferenceable(1) %3) #3
  ret void
}

; Function Attrs: mustprogress nounwind uwtable
define linkonce_odr void @_ZNSt12_Vector_baseIlSaIlEE12_Vector_implC2Ev(ptr noundef nonnull align 8 dereferenceable(24) %0) unnamed_addr #1 comdat align 2 {
  %2 = alloca ptr, align 8
  store ptr %0, ptr %2, align 8, !tbaa !720
  %3 = load ptr, ptr %2, align 8
  call void @_ZNSaIlEC2Ev(ptr noundef nonnull align 1 dereferenceable(1) %3) #3
  call void @_ZNSt12_Vector_baseIlSaIlEE17_Vector_impl_dataC2Ev(ptr noundef nonnull align 8 dereferenceable(24) %3) #3
  ret void
}

; Function Attrs: mustprogress nounwind uwtable
define linkonce_odr void @_ZNSt12_Vector_baseINSt7__cxx1112basic_stringIcSt11char_traitsIcESaIcEEESaIS5_EE12_Vector_implC2Ev(ptr noundef nonnull align 8 dereferenceable(24) %0) unnamed_addr #1 comdat align 2 {
  %2 = alloca ptr, align 8
  store ptr %0, ptr %2, align 8, !tbaa !773
  %3 = load ptr, ptr %2, align 8
  call void @_ZNSaINSt7__cxx1112basic_stringIcSt11char_traitsIcESaIcEEEEC2Ev(ptr noundef nonnull align 1 dereferenceable(1) %3) #3
  call void @_ZNSt12_Vector_baseINSt7__cxx1112basic_stringIcSt11char_traitsIcESaIcEEESaIS5_EE17_Vector_impl_dataC2Ev(ptr noundef nonnull align 8 dereferenceable(24) %3) #3
  ret void
}

; Function Attrs: mustprogress nounwind uwtable
define linkonce_odr void @_ZNSt13_Bvector_baseISaIbEE13_Bvector_implC2Ev(ptr noundef nonnull align 8 dereferenceable(40) %0) unnamed_addr #1 comdat align 2 {
  %2 = alloca ptr, align 8
  store ptr %0, ptr %2, align 8, !tbaa !886
  %3 = load ptr, ptr %2, align 8
  call void @_ZNSaImEC2Ev(ptr noundef nonnull align 1 dereferenceable(1) %3) #3
  call void @_ZNSt13_Bvector_baseISaIbEE18_Bvector_impl_dataC2Ev(ptr noundef nonnull align 8 dereferenceable(40) %3) #3
  ret void
}

; Function Attrs: mustprogress nounwind uwtable
define linkonce_odr void @_ZNSt12_Vector_baseIlSaIlEEC2Ev(ptr noundef nonnull align 8 dereferenceable(24) %0) unnamed_addr #1 comdat align 2 {
  %2 = alloca ptr, align 8
  store ptr %0, ptr %2, align 8, !tbaa !715
  %3 = load ptr, ptr %2, align 8
  %4 = getelementptr inbounds nuw %"struct.std::_Vector_base", ptr %3, i32 0, i32 0
  call void @_ZNSt12_Vector_baseIlSaIlEE12_Vector_implC2Ev(ptr noundef nonnull align 8 dereferenceable(24) %4) #3
  ret void
}

; Function Attrs: mustprogress nounwind uwtable
define linkonce_odr void @_ZNSt12_Vector_baseINSt7__cxx1112basic_stringIcSt11char_traitsIcESaIcEEESaIS5_EEC2Ev(ptr noundef nonnull align 8 dereferenceable(24) %0) unnamed_addr #1 comdat align 2 {
  %2 = alloca ptr, align 8
  store ptr %0, ptr %2, align 8, !tbaa !758
  %3 = load ptr, ptr %2, align 8
  %4 = getelementptr inbounds nuw %"struct.std::_Vector_base.14", ptr %3, i32 0, i32 0
  call void @_ZNSt12_Vector_baseINSt7__cxx1112basic_stringIcSt11char_traitsIcESaIcEEESaIS5_EE12_Vector_implC2Ev(ptr noundef nonnull align 8 dereferenceable(24) %4) #3
  ret void
}

; Function Attrs: mustprogress nounwind uwtable
define linkonce_odr void @_ZNSt13_Bvector_baseISaIbEEC2Ev(ptr noundef nonnull align 8 dereferenceable(40) %0) unnamed_addr #1 comdat align 2 {
  %2 = alloca ptr, align 8
  store ptr %0, ptr %2, align 8, !tbaa !556
  %3 = load ptr, ptr %2, align 8
  %4 = getelementptr inbounds nuw %"struct.std::_Bvector_base", ptr %3, i32 0, i32 0
  call void @_ZNSt13_Bvector_baseISaIbEE13_Bvector_implC2Ev(ptr noundef nonnull align 8 dereferenceable(40) %4) #3
  ret void
}

; Function Attrs: mustprogress nounwind uwtable
define linkonce_odr void @_ZNSt6vectorIlSaIlEEC2Ev(ptr noundef nonnull align 8 dereferenceable(24) %0) unnamed_addr #1 comdat align 2 {
  %2 = alloca ptr, align 8
  store ptr %0, ptr %2, align 8, !tbaa !96
  %3 = load ptr, ptr %2, align 8
  call void @_ZNSt12_Vector_baseIlSaIlEEC2Ev(ptr noundef nonnull align 8 dereferenceable(24) %3) #3
  ret void
}

; Function Attrs: mustprogress nounwind uwtable
define linkonce_odr void @_ZNSt6vectorINSt7__cxx1112basic_stringIcSt11char_traitsIcESaIcEEESaIS5_EEC2Ev(ptr noundef nonnull align 8 dereferenceable(24) %0) unnamed_addr #1 comdat align 2 {
  %2 = alloca ptr, align 8
  store ptr %0, ptr %2, align 8, !tbaa !401
  %3 = load ptr, ptr %2, align 8
  call void @_ZNSt12_Vector_baseINSt7__cxx1112basic_stringIcSt11char_traitsIcESaIcEEESaIS5_EEC2Ev(ptr noundef nonnull align 8 dereferenceable(24) %3) #3
  ret void
}

; Function Attrs: mustprogress nounwind uwtable
define linkonce_odr void @_ZNSt6vectorIbSaIbEEC2Ev(ptr noundef nonnull align 8 dereferenceable(40) %0) unnamed_addr #1 comdat align 2 {
  %2 = alloca ptr, align 8
  store ptr %0, ptr %2, align 8, !tbaa !579
  %3 = load ptr, ptr %2, align 8
  call void @_ZNSt13_Bvector_baseISaIbEEC2Ev(ptr noundef nonnull align 8 dereferenceable(40) %3) #3
  ret void
}

; Function Attrs: noinline noreturn nounwind uwtable
define linkonce_odr hidden void @__clang_call_terminate(ptr noundef %0) #10 comdat {
  %2 = call ptr @__cxa_begin_catch(ptr %0) #3
  call void @_ZSt9terminatev() #21
  unreachable
}

; Function Attrs: mustprogress nounwind uwtable
define linkonce_odr void @_ZN14duckdb_parquet19_ColumnIndex__issetC2Ev(ptr noundef nonnull align 1 dereferenceable(1) %0) unnamed_addr #1 comdat align 2 {
  %2 = alloca ptr, align 8
  store ptr %0, ptr %2, align 8, !tbaa !570
  %3 = load ptr, ptr %2, align 8
  %4 = load i8, ptr %3, align 1
  %5 = and i8 %4, -2
  %6 = or i8 %5, 0
  store i8 %6, ptr %3, align 1
  %7 = load i8, ptr %3, align 1
  %8 = and i8 %7, -3
  %9 = or i8 %8, 0
  store i8 %9, ptr %3, align 1
  %10 = load i8, ptr %3, align 1
  %11 = and i8 %10, -5
  %12 = or i8 %11, 0
  store i8 %12, ptr %3, align 1
  ret void
}

; Function Attrs: mustprogress nounwind uwtable
define linkonce_odr void @_ZN6duckdb6vectorIlLb1EEC2Ev(ptr noundef nonnull align 8 dereferenceable(24) %0) unnamed_addr #1 comdat align 2 {
  %2 = alloca ptr, align 8
  store ptr %0, ptr %2, align 8, !tbaa !72
  %3 = load ptr, ptr %2, align 8
  call void @_ZNSt6vectorIlSaIlEEC2Ev(ptr noundef nonnull align 8 dereferenceable(24) %3) #3
  ret void
}

; Function Attrs: mustprogress nounwind uwtable
define linkonce_odr void @_ZN6duckdb6vectorINSt7__cxx1112basic_stringIcSt11char_traitsIcESaIcEEELb1EEC2Ev(ptr noundef nonnull align 8 dereferenceable(24) %0) unnamed_addr #1 comdat align 2 {
  %2 = alloca ptr, align 8
  store ptr %0, ptr %2, align 8, !tbaa !385
  %3 = load ptr, ptr %2, align 8
  call void @_ZNSt6vectorINSt7__cxx1112basic_stringIcSt11char_traitsIcESaIcEEESaIS5_EEC2Ev(ptr noundef nonnull align 8 dereferenceable(24) %3) #3
  ret void
}

; Function Attrs: mustprogress nounwind uwtable
define linkonce_odr void @_ZN6duckdb6vectorIbLb1EEC2Ev(ptr noundef nonnull align 8 dereferenceable(40) %0) unnamed_addr #1 comdat align 2 {
  %2 = alloca ptr, align 8
  store ptr %0, ptr %2, align 8, !tbaa !568
  %3 = load ptr, ptr %2, align 8
  call void @_ZNSt6vectorIbSaIbEEC2Ev(ptr noundef nonnull align 8 dereferenceable(40) %3) #3
  ret void
}

; Function Attrs: mustprogress nounwind uwtable
define void @_ZN14duckdb_parquet11ColumnIndexC2Ev(ptr noundef nonnull align 8 dereferenceable(177) %0, ptr noundef %1) unnamed_addr #1 align 2 personality ptr @__gxx_personality_v0 {
  %3 = alloca ptr, align 8
  %4 = alloca ptr, align 8
  store ptr %0, ptr %3, align 8, !tbaa !554
  store ptr %1, ptr %4, align 8, !tbaa !24
  %5 = load ptr, ptr %3, align 8
  %6 = load ptr, ptr %4, align 8
  %7 = load ptr, ptr %6, align 8
  store ptr %7, ptr %5, align 8, !tbaa !36
  %8 = getelementptr inbounds ptr, ptr %6, i64 1
  %9 = load ptr, ptr %8, align 8
  %10 = load ptr, ptr %5, align 8, !tbaa !36
  %11 = getelementptr i8, ptr %10, i64 -48
  %12 = load i64, ptr %11, align 8
  %13 = getelementptr inbounds i8, ptr %5, i64 %12
  store ptr %9, ptr %13, align 8, !tbaa !36
  %14 = getelementptr inbounds nuw %"class.duckdb_parquet::ColumnIndex", ptr %5, i32 0, i32 1
  call void @_ZN6duckdb6vectorIbLb1EEC2Ev(ptr noundef nonnull align 8 dereferenceable(40) %14) #3
  %15 = getelementptr inbounds nuw %"class.duckdb_parquet::ColumnIndex", ptr %5, i32 0, i32 2
  call void @_ZN6duckdb6vectorINSt7__cxx1112basic_stringIcSt11char_traitsIcESaIcEEELb1EEC2Ev(ptr noundef nonnull align 8 dereferenceable(24) %15) #3
  %16 = getelementptr inbounds nuw %"class.duckdb_parquet::ColumnIndex", ptr %5, i32 0, i32 3
  call void @_ZN6duckdb6vectorINSt7__cxx1112basic_stringIcSt11char_traitsIcESaIcEEELb1EEC2Ev(ptr noundef nonnull align 8 dereferenceable(24) %16) #3
  %17 = getelementptr inbounds nuw %"class.duckdb_parquet::ColumnIndex", ptr %5, i32 0, i32 4
  store i32 0, ptr %17, align 8, !tbaa !558
  %18 = getelementptr inbounds nuw %"class.duckdb_parquet::ColumnIndex", ptr %5, i32 0, i32 6
  call void @_ZN6duckdb6vectorIlLb1EEC2Ev(ptr noundef nonnull align 8 dereferenceable(24) %18) #3
  %19 = getelementptr inbounds nuw %"class.duckdb_parquet::ColumnIndex", ptr %5, i32 0, i32 7
  call void @_ZN6duckdb6vectorIlLb1EEC2Ev(ptr noundef nonnull align 8 dereferenceable(24) %19) #3
  %20 = getelementptr inbounds nuw %"class.duckdb_parquet::ColumnIndex", ptr %5, i32 0, i32 8
  call void @_ZN6duckdb6vectorIlLb1EEC2Ev(ptr noundef nonnull align 8 dereferenceable(24) %20) #3
  %21 = getelementptr inbounds nuw %"class.duckdb_parquet::ColumnIndex", ptr %5, i32 0, i32 9
  invoke void @_ZN14duckdb_parquet19_ColumnIndex__issetC2Ev(ptr noundef nonnull align 1 dereferenceable(1) %21)
          to label %22 unwind label %23

22:                                               ; preds = %2
  ret void

23:                                               ; preds = %2
  %24 = landingpad { ptr, i32 }
          catch ptr null
  %25 = extractvalue { ptr, i32 } %24, 0
  call void @__clang_call_terminate(ptr %25) #21
  unreachable
}